target datalayout = "e-m:e-p270:32:32-p271:32:32-p272:64:64-i64:64-i128:128-f80:128-n8:16:32:64-S128"
target triple = "x86_64-pc-linux-gnu"

%struct.patch_id_opts = type { i32, i32 }

@.str.6 = private unnamed_addr constant [15 x i8] c"patchid.stable\00", align 1
@.str.7 = private unnamed_addr constant [17 x i8] c"patchid.verbatim\00", align 1

; Function Attrs: nounwind uwtable
define internal i32 @git_patch_id_config(ptr noundef %0, ptr noundef %1, ptr noundef %2, ptr noundef %3) #0 {
  %5 = alloca i32, align 4
  %6 = alloca ptr, align 8
  %7 = alloca ptr, align 8
  %8 = alloca ptr, align 8
  %9 = alloca ptr, align 8
  %10 = alloca ptr, align 8
  %11 = alloca i32, align 4
  store ptr %0, ptr %6, align 8, !tbaa !11
  store ptr %1, ptr %7, align 8, !tbaa !11
  store ptr %2, ptr %8, align 8, !tbaa !51
  store ptr %3, ptr %9, align 8, !tbaa !50
  call void @llvm.lifetime.start.p0(i64 8, ptr %10) #9
  %12 = load ptr, ptr %9, align 8, !tbaa !50
  store ptr %12, ptr %10, align 8, !tbaa !53
  %13 = load ptr, ptr %6, align 8, !tbaa !11
  %14 = call i32 @strcmp(ptr noundef %13, ptr noundef @.str.6) #10
  %15 = icmp ne i32 %14, 0
  br i1 %15, label %22, label %16

16:                                               ; preds = %4
  %17 = load ptr, ptr %6, align 8, !tbaa !11
  %18 = load ptr, ptr %7, align 8, !tbaa !11
  %19 = call i32 @git_config_bool(ptr noundef %17, ptr noundef %18)
  %20 = load ptr, ptr %10, align 8, !tbaa !53
  %21 = getelementptr inbounds nuw %struct.patch_id_opts, ptr %20, i32 0, i32 0
  store i32 %19, ptr %21, align 4, !tbaa !31
  store i32 0, ptr %5, align 4
  store i32 1, ptr %11, align 4
  br label %38

22:                                               ; preds = %4
  %23 = load ptr, ptr %6, align 8, !tbaa !11
  %24 = call i32 @strcmp(ptr noundef %23, ptr noundef @.str.7) #10
  %25 = icmp ne i32 %24, 0
  br i1 %25, label %32, label %26

26:                                               ; preds = %22
  %27 = load ptr, ptr %6, align 8, !tbaa !11
  %28 = load ptr, ptr %7, align 8, !tbaa !11
  %29 = call i32 @git_config_bool(ptr noundef %27, ptr noundef %28)
  %30 = load ptr, ptr %10, align 8, !tbaa !53
  %31 = getelementptr inbounds nuw %struct.patch_id_opts, ptr %30, i32 0, i32 1
  store i32 %29, ptr %31, align 4, !tbaa !29
  store i32 0, ptr %5, align 4
  store i32 1, ptr %11, align 4
  br label %38

32:                                               ; preds = %22
  %33 = load ptr, ptr %6, align 8, !tbaa !11
  %34 = load ptr, ptr %7, align 8, !tbaa !11
  %35 = load ptr, ptr %8, align 8, !tbaa !51
  %36 = load ptr, ptr %9, align 8, !tbaa !50
  %37 = call i32 @git_default_config(ptr noundef %33, ptr noundef %34, ptr noundef %35, ptr noundef %36)
  store i32 %37, ptr %5, align 4
  store i32 1, ptr %11, align 4
  br label %38

38:                                               ; preds = %32, %26, %16
  call void @llvm.lifetime.end.p0(i64 8, ptr %10) #9
  %39 = load i32, ptr %5, align 4
  ret i32 %39
}