; Function Attrs: nounwind uwtable
define internal i32 @git_patch_id_config(ptr noundef %0, ptr noundef %1, ptr noundef %2, ptr noundef %3) #0 {
  %5 = tail call i32 @strcmp(ptr noundef nonnull dereferenceable(1) %0, ptr noundef nonnull dereferenceable(15) @.str.6) #10
  %.not = icmp eq i32 %5, 0
  br i1 %.not, label %6, label %8

6:                                                ; preds = %4
  %7 = tail call i32 @git_config_bool(ptr noundef nonnull %0, ptr noundef %1) #9
  store i32 %7, ptr %3, align 4, !tbaa !25
  br label %15

8:                                                ; preds = %4
  %9 = tail call i32 @strcmp(ptr noundef nonnull dereferenceable(1) %0, ptr noundef nonnull dereferenceable(17) @.str.7) #10
  %.not13 = icmp eq i32 %9, 0
  br i1 %.not13, label %10, label %13

10:                                               ; preds = %8
  %11 = tail call i32 @git_config_bool(ptr noundef nonnull %0, ptr noundef %1) #9
  %12 = getelementptr inbounds nuw i8, ptr %3, i64 4
  store i32 %11, ptr %12, align 4, !tbaa !23
  br label %15

13:                                               ; preds = %8
  %14 = tail call i32 @git_default_config(ptr noundef nonnull %0, ptr noundef %1, ptr noundef %2, ptr noundef %3) #9
  br label %15

15:                                               ; preds = %13, %10, %6
  %.0 = phi i32 [ %14, %13 ], [ 0, %10 ], [ 0, %6 ]
  ret i32 %.0
}